target datalayout = "e-m:e-p270:32:32-p271:32:32-p272:64:64-i64:64-i128:128-f80:128-n8:16:32:64-S128"
target triple = "x86_64-unknown-linux-gnu"

%struct.aiExportFormatDesc = type { ptr, ptr, ptr }

; Function Attrs: mustprogress nounwind uwtable
define void @aiReleaseExportFormatDescription(ptr noundef %desc) #0 {
entry:
  %desc.addr = alloca ptr, align 8
  store ptr %desc, ptr %desc.addr, align 8
  %0 = load ptr, ptr %desc.addr, align 8
  %cmp = icmp eq ptr null, %0
  br i1 %cmp, label %if.then, label %if.end

if.then:                                          ; preds = %entry
  br label %delete.end9

if.end:                                           ; preds = %entry
  %1 = load ptr, ptr %desc.addr, align 8
  %description = getelementptr inbounds %struct.aiExportFormatDesc, ptr %1, i32 0, i32 1
  %2 = load ptr, ptr %description, align 8
  %isnull = icmp eq ptr %2, null
  br i1 %isnull, label %delete.end, label %delete.notnull

delete.notnull:                                   ; preds = %if.end
  call void @_ZdaPv(ptr noundef %2) #16
  br label %delete.end

delete.end:                                       ; preds = %delete.notnull, %if.end
  %3 = load ptr, ptr %desc.addr, align 8
  %fileExtension = getelementptr inbounds %struct.aiExportFormatDesc, ptr %3, i32 0, i32 2
  %4 = load ptr, ptr %fileExtension, align 8
  %isnull1 = icmp eq ptr %4, null
  br i1 %isnull1, label %delete.end3, label %delete.notnull2

delete.notnull2:                                  ; preds = %delete.end
  call void @_ZdaPv(ptr noundef %4) #16
  br label %delete.end3

delete.end3:                                      ; preds = %delete.notnull2, %delete.end
  %5 = load ptr, ptr %desc.addr, align 8
  %id = getelementptr inbounds %struct.aiExportFormatDesc, ptr %5, i32 0, i32 0
  %6 = load ptr, ptr %id, align 8
  %isnull4 = icmp eq ptr %6, null
  br i1 %isnull4, label %delete.end6, label %delete.notnull5

delete.notnull5:                                  ; preds = %delete.end3
  call void @_ZdaPv(ptr noundef %6) #16
  br label %delete.end6

delete.end6:                                      ; preds = %delete.notnull5, %delete.end3
  %7 = load ptr, ptr %desc.addr, align 8
  %isnull7 = icmp eq ptr %7, null
  br i1 %isnull7, label %delete.end9, label %delete.notnull8

delete.notnull8:                                  ; preds = %delete.end6
  call void @_ZdlPv(ptr noundef %7) #16
  br label %delete.end9

delete.end9:                                      ; preds = %delete.notnull8, %delete.end6, %if.then
  ret void
}