; Function Attrs: mustprogress nounwind uwtable
define void @aiReleaseExportFormatDescription(ptr noundef %desc) local_unnamed_addr #7 {
entry:
  %cmp = icmp eq ptr %desc, null
  br i1 %cmp, label %delete.end9, label %if.end

if.end:                                           ; preds = %entry
  %description = getelementptr inbounds i8, ptr %desc, i64 8
  %0 = load ptr, ptr %description, align 8
  %isnull = icmp eq ptr %0, null
  br i1 %isnull, label %delete.end, label %delete.notnull

delete.notnull:                                   ; preds = %if.end
  tail call void @_ZdaPv(ptr noundef nonnull %0) #13
  br label %delete.end

delete.end:                                       ; preds = %delete.notnull, %if.end
  %fileExtension = getelementptr inbounds i8, ptr %desc, i64 16
  %1 = load ptr, ptr %fileExtension, align 8
  %isnull1 = icmp eq ptr %1, null
  br i1 %isnull1, label %delete.end3, label %delete.notnull2

delete.notnull2:                                  ; preds = %delete.end
  tail call void @_ZdaPv(ptr noundef nonnull %1) #13
  br label %delete.end3

delete.end3:                                      ; preds = %delete.notnull2, %delete.end
  %2 = load ptr, ptr %desc, align 8
  %isnull4 = icmp eq ptr %2, null
  br i1 %isnull4, label %delete.notnull8, label %delete.notnull5

delete.notnull5:                                  ; preds = %delete.end3
  tail call void @_ZdaPv(ptr noundef nonnull %2) #13
  br label %delete.notnull8

delete.notnull8:                                  ; preds = %delete.end3, %delete.notnull5
  tail call void @_ZdlPv(ptr noundef nonnull %desc) #13
  br label %delete.end9

delete.end9:                                      ; preds = %entry, %delete.notnull8
  ret void
}